; Function Attrs: mustprogress uwtable
define noundef zeroext i1 @_ZNK5arrow5Array11RangeEqualsERKSt10shared_ptrIS0_ElllRKNS_12EqualOptionsE(ptr noundef nonnull align 8 dereferenceable(32) %0, ptr noundef nonnull readonly align 8 captures(none) dereferenceable(16) %1, i64 noundef %2, i64 noundef %3, i64 noundef %4, ptr noundef nonnull align 8 dereferenceable(24) %5) local_unnamed_addr #1 align 2 {
  %7 = load ptr, ptr %1, align 8, !tbaa !121
  %.not = icmp eq ptr %7, null
  br i1 %.not, label %10, label %8

8:                                                ; preds = %6
  %9 = tail call noundef zeroext i1 @_ZN5arrow16ArrayRangeEqualsERKNS_5ArrayES2_lllRKNS_12EqualOptionsE(ptr noundef nonnull align 8 dereferenceable(32) %0, ptr noundef nonnull align 8 dereferenceable(32) %7, i64 noundef %2, i64 noundef %3, i64 noundef %4, ptr noundef nonnull align 8 dereferenceable(24) %5)
  br label %10

10:                                               ; preds = %6, %8
  %.0 = phi i1 [ %9, %8 ], [ false, %6 ]
  ret i1 %.0
}